target datalayout = "e-m:e-p270:32:32-p271:32:32-p272:64:64-i64:64-i128:128-f80:128-n8:16:32:64-S128"
target triple = "x86_64-pc-linux-gnu"

; Function Attrs: nounwind uwtable
define internal i32 @math_toint(ptr noundef %0) #0 {
  %2 = alloca ptr, align 8
  %3 = alloca i32, align 4
  %4 = alloca i64, align 8
  store ptr %0, ptr %2, align 8, !tbaa !4
  call void @llvm.lifetime.start.p0(i64 4, ptr %3) #6
  call void @llvm.lifetime.start.p0(i64 8, ptr %4) #6
  %5 = load ptr, ptr %2, align 8, !tbaa !4
  %6 = call i64 @lua_tointegerx(ptr noundef %5, i32 noundef 1, ptr noundef %3)
  store i64 %6, ptr %4, align 8, !tbaa !10
  %7 = load i32, ptr %3, align 4, !tbaa !12
  %8 = icmp ne i32 %7, 0
  %9 = zext i1 %8 to i32
  %10 = sext i32 %9 to i64
  %11 = call i64 @llvm.expect.i64(i64 %10, i64 1)
  %12 = icmp ne i64 %11, 0
  br i1 %12, label %13, label %16

13:                                               ; preds = %1
  %14 = load ptr, ptr %2, align 8, !tbaa !4
  %15 = load i64, ptr %4, align 8, !tbaa !10
  call void @lua_pushinteger(ptr noundef %14, i64 noundef %15)
  br label %19

16:                                               ; preds = %1
  %17 = load ptr, ptr %2, align 8, !tbaa !4
  call void @luaL_checkany(ptr noundef %17, i32 noundef 1)
  %18 = load ptr, ptr %2, align 8, !tbaa !4
  call void @lua_pushnil(ptr noundef %18)
  br label %19

19:                                               ; preds = %16, %13
  call void @llvm.lifetime.end.p0(i64 8, ptr %4) #6
  call void @llvm.lifetime.end.p0(i64 4, ptr %3) #6
  ret i32 1
}