; Function Attrs: nounwind uwtable
define internal noundef i32 @math_toint(ptr noundef %0) #0 {
  %2 = alloca i32, align 4
  call void @llvm.lifetime.start.p0(i64 4, ptr nonnull %2) #6
  %3 = call i64 @lua_tointegerx(ptr noundef %0, i32 noundef 1, ptr noundef nonnull %2) #6
  %4 = load i32, ptr %2, align 4, !tbaa !8
  %.not = icmp eq i32 %4, 0
  br i1 %.not, label %6, label %5, !prof !10

5:                                                ; preds = %1
  call void @lua_pushinteger(ptr noundef %0, i64 noundef %3) #6
  br label %7

6:                                                ; preds = %1
  call void @luaL_checkany(ptr noundef %0, i32 noundef 1) #6
  call void @lua_pushnil(ptr noundef %0) #6
  br label %7

7:                                                ; preds = %6, %5
  call void @llvm.lifetime.end.p0(i64 4, ptr nonnull %2) #6
  ret i32 1
}